; Function Attrs: mustprogress uwtable
define hidden noundef ptr @_ZN3smt10theory_str6mk_intER8rational(ptr noundef nonnull align 8 dereferenceable(1800) %0, ptr noundef nonnull align 8 dereferenceable(32) %1) local_unnamed_addr #4 align 2 {
  %3 = getelementptr inbounds nuw i8, ptr %0, i64 88
  %4 = load ptr, ptr %3, align 8, !tbaa !943
  %.not.i.i = icmp eq ptr %4, null
  br i1 %.not.i.i, label %5, label %_ZNK10arith_util10mk_numeralERK8rationalb.exit

5:                                                ; preds = %2
  %6 = getelementptr inbounds nuw i8, ptr %0, i64 80
  tail call void @_ZN10arith_util11init_pluginEv(ptr noundef nonnull align 8 dereferenceable(16) %6)
  %.pre.i.i = load ptr, ptr %3, align 8, !tbaa !943
  br label %_ZNK10arith_util10mk_numeralERK8rationalb.exit

_ZNK10arith_util10mk_numeralERK8rationalb.exit:   ; preds = %2, %5
  %7 = phi ptr [ %.pre.i.i, %5 ], [ %4, %2 ]
  %8 = tail call noundef ptr @_ZN17arith_decl_plugin10mk_numeralERK8rationalb(ptr noundef nonnull align 8 dereferenceable(441) %7, ptr noundef nonnull align 8 dereferenceable(32) %1, i1 noundef zeroext true)
  ret ptr %8
}